target datalayout = "e-m:e-p270:32:32-p271:32:32-p272:64:64-i64:64-i128:128-f80:128-n8:16:32:64-S128"
target triple = "x86_64-pc-linux-gnu"

%struct.COMPLEX = type { double, double }
%struct.PJconsts = type { ptr, ptr, ptr, ptr, ptr, ptr, ptr, ptr, ptr, ptr, ptr, ptr, i32, ptr, ptr, ptr, ptr, ptr, ptr, ptr, ptr, double, double, double, double, double, double, double, double, double, double, double, double, double, double, double, double, double, double, double, double, double, double, i32, i32, i32, i32, i32, i32, i32, i32, i32, i32, i32, ptr, ptr, ptr, ptr, ptr, ptr, double, double, double, double, double, double, double, double, double, double, double, i32, [7 x double], i32, ptr, ptr, double, double, i32, [4 x i8], %"class.std::shared_ptr", i8, double, i8, %"class.std::__cxx11::basic_string", %"class.std::__cxx11::basic_string", %"class.std::__cxx11::basic_string", i8, %"class.std::vector", i32, %"class.std::vector.3", i32, i8, i8, i8, ptr }
%"class.std::shared_ptr" = type { %"class.std::__shared_ptr" }
%"class.std::__shared_ptr" = type { ptr, %"class.std::__shared_count" }
%"class.std::__shared_count" = type { ptr }
%"class.std::__cxx11::basic_string" = type { %"struct.std::__cxx11::basic_string<char>::_Alloc_hider", i64, %union.anon }
%"struct.std::__cxx11::basic_string<char>::_Alloc_hider" = type { ptr }
%union.anon = type { i64, [8 x i8] }
%"class.std::vector" = type { %"struct.std::_Vector_base" }
%"struct.std::_Vector_base" = type { %"struct.std::_Vector_base<osgeo::proj::operation::GridDescription, std::allocator<osgeo::proj::operation::GridDescription>>::_Vector_impl" }
%"struct.std::_Vector_base<osgeo::proj::operation::GridDescription, std::allocator<osgeo::proj::operation::GridDescription>>::_Vector_impl" = type { %"struct.std::_Vector_base<osgeo::proj::operation::GridDescription, std::allocator<osgeo::proj::operation::GridDescription>>::_Vector_impl_data" }
%"struct.std::_Vector_base<osgeo::proj::operation::GridDescription, std::allocator<osgeo::proj::operation::GridDescription>>::_Vector_impl_data" = type { ptr, ptr, ptr }
%"class.std::vector.3" = type { %"struct.std::_Vector_base.4" }
%"struct.std::_Vector_base.4" = type { %"struct.std::_Vector_base<PJCoordOperation, std::allocator<PJCoordOperation>>::_Vector_impl" }
%"struct.std::_Vector_base<PJCoordOperation, std::allocator<PJCoordOperation>>::_Vector_impl" = type { %"struct.std::_Vector_base<PJCoordOperation, std::allocator<PJCoordOperation>>::_Vector_impl_data" }
%"struct.std::_Vector_base<PJCoordOperation, std::allocator<PJCoordOperation>>::_Vector_impl_data" = type { ptr, ptr, ptr }
%"struct.(anonymous namespace)::pj_mod_ster_data" = type { ptr, double, double, i32 }
%struct.PJ_LP = type { double, double }
%struct.PJ_XY = type { double, double }

; Function Attrs: mustprogress uwtable
define internal { double, double } @_ZL18mod_ster_e_inverse5PJ_XYP8PJconsts(double %0, double %1, ptr noundef %2) #0 {
  %4 = alloca %struct.PJ_LP, align 8
  %5 = alloca %struct.PJ_XY, align 8
  %6 = alloca ptr, align 8
  %7 = alloca ptr, align 8
  %8 = alloca i32, align 4
  %9 = alloca %struct.COMPLEX, align 8
  %10 = alloca %struct.COMPLEX, align 8
  %11 = alloca %struct.COMPLEX, align 8
  %12 = alloca %struct.COMPLEX, align 8
  %13 = alloca double, align 8
  %14 = alloca double, align 8
  %15 = alloca double, align 8
  %16 = alloca double, align 8
  %17 = alloca double, align 8
  %18 = alloca double, align 8
  %19 = alloca double, align 8
  %20 = alloca double, align 8
  %21 = alloca %struct.COMPLEX, align 8
  %22 = alloca %struct.COMPLEX, align 8
  %23 = alloca i32, align 4
  %24 = alloca double, align 8
  %25 = getelementptr inbounds nuw { double, double }, ptr %5, i32 0, i32 0
  store double %0, ptr %25, align 8
  %26 = getelementptr inbounds nuw { double, double }, ptr %5, i32 0, i32 1
  store double %1, ptr %26, align 8
  store ptr %2, ptr %6, align 8, !tbaa !3
  call void @llvm.memset.p0.i64(ptr align 8 %4, i8 0, i64 16, i1 false)
  call void @llvm.lifetime.start.p0(i64 8, ptr %7) #9
  %27 = load ptr, ptr %6, align 8, !tbaa !3
  %28 = getelementptr inbounds nuw %struct.PJconsts, ptr %27, i32 0, i32 11
  %29 = load ptr, ptr %28, align 8, !tbaa !43
  store ptr %29, ptr %7, align 8, !tbaa !41
  call void @llvm.lifetime.start.p0(i64 4, ptr %8) #9
  call void @llvm.lifetime.start.p0(i64 16, ptr %9) #9
  call void @llvm.lifetime.start.p0(i64 16, ptr %10) #9
  call void @llvm.lifetime.start.p0(i64 16, ptr %11) #9
  call void @llvm.lifetime.start.p0(i64 16, ptr %12) #9
  call void @llvm.lifetime.start.p0(i64 8, ptr %13) #9
  call void @llvm.lifetime.start.p0(i64 8, ptr %14) #9
  store double 0.000000e+00, ptr %14, align 8, !tbaa !52
  call void @llvm.lifetime.start.p0(i64 8, ptr %15) #9
  call void @llvm.lifetime.start.p0(i64 8, ptr %16) #9
  store double 0.000000e+00, ptr %16, align 8, !tbaa !52
  call void @llvm.lifetime.start.p0(i64 8, ptr %17) #9
  store double 0.000000e+00, ptr %17, align 8, !tbaa !52
  call void @llvm.lifetime.start.p0(i64 8, ptr %18) #9
  call void @llvm.lifetime.start.p0(i64 8, ptr %19) #9
  store double 0.000000e+00, ptr %19, align 8, !tbaa !52
  call void @llvm.lifetime.start.p0(i64 8, ptr %20) #9
  %30 = getelementptr inbounds nuw %struct.PJ_XY, ptr %5, i32 0, i32 0
  %31 = load double, ptr %30, align 8, !tbaa !58
  %32 = getelementptr inbounds nuw %struct.COMPLEX, ptr %9, i32 0, i32 0
  store double %31, ptr %32, align 8, !tbaa !60
  %33 = getelementptr inbounds nuw %struct.PJ_XY, ptr %5, i32 0, i32 1
  %34 = load double, ptr %33, align 8, !tbaa !62
  %35 = getelementptr inbounds nuw %struct.COMPLEX, ptr %9, i32 0, i32 1
  store double %34, ptr %35, align 8, !tbaa !63
  store i32 20, ptr %8, align 4, !tbaa !51
  br label %36

36:                                               ; preds = %124, %3
  %37 = load i32, ptr %8, align 4, !tbaa !51
  %38 = icmp ne i32 %37, 0
  br i1 %38, label %39, label %127

39:                                               ; preds = %36
  call void @llvm.lifetime.start.p0(i64 16, ptr %21) #9
  call void @llvm.memcpy.p0.p0.i64(ptr align 8 %22, ptr align 8 %9, i64 16, i1 false), !tbaa.struct !64
  %40 = load ptr, ptr %7, align 8, !tbaa !41
  %41 = getelementptr inbounds nuw %"struct.(anonymous namespace)::pj_mod_ster_data", ptr %40, i32 0, i32 0
  %42 = load ptr, ptr %41, align 8, !tbaa !48
  %43 = load ptr, ptr %7, align 8, !tbaa !41
  %44 = getelementptr inbounds nuw %"struct.(anonymous namespace)::pj_mod_ster_data", ptr %43, i32 0, i32 3
  %45 = load i32, ptr %44, align 8, !tbaa !44
  %46 = getelementptr inbounds nuw { double, double }, ptr %22, i32 0, i32 0
  %47 = load double, ptr %46, align 8
  %48 = getelementptr inbounds nuw { double, double }, ptr %22, i32 0, i32 1
  %49 = load double, ptr %48, align 8
  %50 = call { double, double } @_Z10pj_zpolyd17COMPLEXPKS_iPS_(double %47, double %49, ptr noundef %42, i32 noundef %45, ptr noundef %11)
  %51 = getelementptr inbounds nuw { double, double }, ptr %21, i32 0, i32 0
  %52 = extractvalue { double, double } %50, 0
  store double %52, ptr %51, align 8
  %53 = getelementptr inbounds nuw { double, double }, ptr %21, i32 0, i32 1
  %54 = extractvalue { double, double } %50, 1
  store double %54, ptr %53, align 8
  call void @llvm.memcpy.p0.p0.i64(ptr align 8 %10, ptr align 8 %21, i64 16, i1 false), !tbaa.struct !64
  call void @llvm.lifetime.end.p0(i64 16, ptr %21) #9
  %55 = getelementptr inbounds nuw %struct.PJ_XY, ptr %5, i32 0, i32 0
  %56 = load double, ptr %55, align 8, !tbaa !58
  %57 = getelementptr inbounds nuw %struct.COMPLEX, ptr %10, i32 0, i32 0
  %58 = load double, ptr %57, align 8, !tbaa !60
  %59 = fsub double %58, %56
  store double %59, ptr %57, align 8, !tbaa !60
  %60 = getelementptr inbounds nuw %struct.PJ_XY, ptr %5, i32 0, i32 1
  %61 = load double, ptr %60, align 8, !tbaa !62
  %62 = getelementptr inbounds nuw %struct.COMPLEX, ptr %10, i32 0, i32 1
  %63 = load double, ptr %62, align 8, !tbaa !63
  %64 = fsub double %63, %61
  store double %64, ptr %62, align 8, !tbaa !63
  %65 = getelementptr inbounds nuw %struct.COMPLEX, ptr %11, i32 0, i32 0
  %66 = load double, ptr %65, align 8, !tbaa !60
  %67 = getelementptr inbounds nuw %struct.COMPLEX, ptr %11, i32 0, i32 0
  %68 = load double, ptr %67, align 8, !tbaa !60
  %69 = getelementptr inbounds nuw %struct.COMPLEX, ptr %11, i32 0, i32 1
  %70 = load double, ptr %69, align 8, !tbaa !63
  %71 = getelementptr inbounds nuw %struct.COMPLEX, ptr %11, i32 0, i32 1
  %72 = load double, ptr %71, align 8, !tbaa !63
  %73 = fmul double %70, %72
  %74 = call double @llvm.fmuladd.f64(double %66, double %68, double %73)
  store double %74, ptr %13, align 8, !tbaa !52
  %75 = getelementptr inbounds nuw %struct.COMPLEX, ptr %10, i32 0, i32 0
  %76 = load double, ptr %75, align 8, !tbaa !60
  %77 = getelementptr inbounds nuw %struct.COMPLEX, ptr %11, i32 0, i32 0
  %78 = load double, ptr %77, align 8, !tbaa !60
  %79 = getelementptr inbounds nuw %struct.COMPLEX, ptr %10, i32 0, i32 1
  %80 = load double, ptr %79, align 8, !tbaa !63
  %81 = getelementptr inbounds nuw %struct.COMPLEX, ptr %11, i32 0, i32 1
  %82 = load double, ptr %81, align 8, !tbaa !63
  %83 = fmul double %80, %82
  %84 = call double @llvm.fmuladd.f64(double %76, double %78, double %83)
  %85 = fneg double %84
  %86 = load double, ptr %13, align 8, !tbaa !52
  %87 = fdiv double %85, %86
  %88 = getelementptr inbounds nuw %struct.COMPLEX, ptr %12, i32 0, i32 0
  store double %87, ptr %88, align 8, !tbaa !60
  %89 = getelementptr inbounds nuw %struct.COMPLEX, ptr %10, i32 0, i32 1
  %90 = load double, ptr %89, align 8, !tbaa !63
  %91 = getelementptr inbounds nuw %struct.COMPLEX, ptr %11, i32 0, i32 0
  %92 = load double, ptr %91, align 8, !tbaa !60
  %93 = getelementptr inbounds nuw %struct.COMPLEX, ptr %10, i32 0, i32 0
  %94 = load double, ptr %93, align 8, !tbaa !60
  %95 = getelementptr inbounds nuw %struct.COMPLEX, ptr %11, i32 0, i32 1
  %96 = load double, ptr %95, align 8, !tbaa !63
  %97 = fmul double %94, %96
  %98 = fneg double %97
  %99 = call double @llvm.fmuladd.f64(double %90, double %92, double %98)
  %100 = fneg double %99
  %101 = load double, ptr %13, align 8, !tbaa !52
  %102 = fdiv double %100, %101
  %103 = getelementptr inbounds nuw %struct.COMPLEX, ptr %12, i32 0, i32 1
  store double %102, ptr %103, align 8, !tbaa !63
  %104 = getelementptr inbounds nuw %struct.COMPLEX, ptr %12, i32 0, i32 0
  %105 = load double, ptr %104, align 8, !tbaa !60
  %106 = getelementptr inbounds nuw %struct.COMPLEX, ptr %9, i32 0, i32 0
  %107 = load double, ptr %106, align 8, !tbaa !60
  %108 = fadd double %107, %105
  store double %108, ptr %106, align 8, !tbaa !60
  %109 = getelementptr inbounds nuw %struct.COMPLEX, ptr %12, i32 0, i32 1
  %110 = load double, ptr %109, align 8, !tbaa !63
  %111 = getelementptr inbounds nuw %struct.COMPLEX, ptr %9, i32 0, i32 1
  %112 = load double, ptr %111, align 8, !tbaa !63
  %113 = fadd double %112, %110
  store double %113, ptr %111, align 8, !tbaa !63
  %114 = getelementptr inbounds nuw %struct.COMPLEX, ptr %12, i32 0, i32 0
  %115 = load double, ptr %114, align 8, !tbaa !60
  %116 = call double @llvm.fabs.f64(double %115)
  %117 = getelementptr inbounds nuw %struct.COMPLEX, ptr %12, i32 0, i32 1
  %118 = load double, ptr %117, align 8, !tbaa !63
  %119 = call double @llvm.fabs.f64(double %118)
  %120 = fadd double %116, %119
  %121 = fcmp ole double %120, 0x3D719799812DEA11
  br i1 %121, label %122, label %123

122:                                              ; preds = %39
  br label %127

123:                                              ; preds = %39
  br label %124

124:                                              ; preds = %123
  %125 = load i32, ptr %8, align 4, !tbaa !51
  %126 = add nsw i32 %125, -1
  store i32 %126, ptr %8, align 4, !tbaa !51
  br label %36, !llvm.loop !65

127:                                              ; preds = %122, %36
  %128 = load i32, ptr %8, align 4, !tbaa !51
  %129 = icmp ne i32 %128, 0
  br i1 %129, label %130, label %218

130:                                              ; preds = %127
  %131 = getelementptr inbounds nuw %struct.COMPLEX, ptr %9, i32 0, i32 0
  %132 = load double, ptr %131, align 8, !tbaa !60
  %133 = getelementptr inbounds nuw %struct.COMPLEX, ptr %9, i32 0, i32 1
  %134 = load double, ptr %133, align 8, !tbaa !63
  %135 = call double @hypot(double noundef %132, double noundef %134) #9, !tbaa !51
  store double %135, ptr %14, align 8, !tbaa !52
  %136 = load double, ptr %14, align 8, !tbaa !52
  %137 = fmul double 5.000000e-01, %136
  %138 = call double @atan(double noundef %137) #9, !tbaa !51
  %139 = fmul double 2.000000e+00, %138
  store double %139, ptr %15, align 8, !tbaa !52
  %140 = load double, ptr %15, align 8, !tbaa !52
  %141 = call double @sin(double noundef %140) #9, !tbaa !51
  store double %141, ptr %16, align 8, !tbaa !52
  %142 = load double, ptr %15, align 8, !tbaa !52
  %143 = call double @cos(double noundef %142) #9, !tbaa !51
  store double %143, ptr %17, align 8, !tbaa !52
  %144 = load double, ptr %14, align 8, !tbaa !52
  %145 = call double @llvm.fabs.f64(double %144)
  %146 = fcmp ole double %145, 0x3D719799812DEA11
  br i1 %146, label %147, label %153

147:                                              ; preds = %130
  %148 = getelementptr inbounds nuw %struct.PJ_LP, ptr %4, i32 0, i32 0
  store double 0.000000e+00, ptr %148, align 8, !tbaa !67
  %149 = load ptr, ptr %6, align 8, !tbaa !3
  %150 = getelementptr inbounds nuw %struct.PJconsts, ptr %149, i32 0, i32 61
  %151 = load double, ptr %150, align 8, !tbaa !47
  %152 = getelementptr inbounds nuw %struct.PJ_LP, ptr %4, i32 0, i32 1
  store double %151, ptr %152, align 8, !tbaa !69
  store i32 1, ptr %23, align 4
  br label %250

153:                                              ; preds = %130
  %154 = load ptr, ptr %6, align 8, !tbaa !3
  %155 = getelementptr inbounds nuw %struct.PJconsts, ptr %154, i32 0, i32 0
  %156 = load ptr, ptr %155, align 8, !tbaa !70
  %157 = load double, ptr %17, align 8, !tbaa !52
  %158 = load ptr, ptr %7, align 8, !tbaa !41
  %159 = getelementptr inbounds nuw %"struct.(anonymous namespace)::pj_mod_ster_data", ptr %158, i32 0, i32 2
  %160 = load double, ptr %159, align 8, !tbaa !53
  %161 = getelementptr inbounds nuw %struct.COMPLEX, ptr %9, i32 0, i32 1
  %162 = load double, ptr %161, align 8, !tbaa !63
  %163 = load double, ptr %16, align 8, !tbaa !52
  %164 = fmul double %162, %163
  %165 = load ptr, ptr %7, align 8, !tbaa !41
  %166 = getelementptr inbounds nuw %"struct.(anonymous namespace)::pj_mod_ster_data", ptr %165, i32 0, i32 1
  %167 = load double, ptr %166, align 8, !tbaa !54
  %168 = fmul double %164, %167
  %169 = load double, ptr %14, align 8, !tbaa !52
  %170 = fdiv double %168, %169
  %171 = call double @llvm.fmuladd.f64(double %157, double %160, double %170)
  %172 = call noundef double @_Z5aasinP6pj_ctxd(ptr noundef %156, double noundef %171)
  store double %172, ptr %18, align 8, !tbaa !52
  %173 = load double, ptr %18, align 8, !tbaa !52
  store double %173, ptr %19, align 8, !tbaa !52
  store i32 20, ptr %8, align 4, !tbaa !51
  br label %174

174:                                              ; preds = %214, %153
  %175 = load i32, ptr %8, align 4, !tbaa !51
  %176 = icmp ne i32 %175, 0
  br i1 %176, label %177, label %217

177:                                              ; preds = %174
  call void @llvm.lifetime.start.p0(i64 8, ptr %24) #9
  %178 = load ptr, ptr %6, align 8, !tbaa !3
  %179 = getelementptr inbounds nuw %struct.PJconsts, ptr %178, i32 0, i32 26
  %180 = load double, ptr %179, align 8, !tbaa !50
  %181 = load double, ptr %19, align 8, !tbaa !52
  %182 = call double @sin(double noundef %181) #9, !tbaa !51
  %183 = fmul double %180, %182
  store double %183, ptr %20, align 8, !tbaa !52
  %184 = load double, ptr %18, align 8, !tbaa !52
  %185 = fadd double 0x3FF921FB54442D18, %184
  %186 = fmul double %185, 5.000000e-01
  %187 = call double @tan(double noundef %186) #9, !tbaa !51
  %188 = load double, ptr %20, align 8, !tbaa !52
  %189 = fadd double 1.000000e+00, %188
  %190 = load double, ptr %20, align 8, !tbaa !52
  %191 = fsub double 1.000000e+00, %190
  %192 = fdiv double %189, %191
  %193 = load ptr, ptr %6, align 8, !tbaa !3
  %194 = getelementptr inbounds nuw %struct.PJconsts, ptr %193, i32 0, i32 26
  %195 = load double, ptr %194, align 8, !tbaa !50
  %196 = fmul double %195, 5.000000e-01
  %197 = call double @pow(double noundef %192, double noundef %196) #9, !tbaa !51
  %198 = fmul double %187, %197
  %199 = call double @atan(double noundef %198) #9, !tbaa !51
  %200 = call double @llvm.fmuladd.f64(double 2.000000e+00, double %199, double 0xBFF921FB54442D18)
  %201 = load double, ptr %19, align 8, !tbaa !52
  %202 = fsub double %200, %201
  store double %202, ptr %24, align 8, !tbaa !52
  %203 = load double, ptr %24, align 8, !tbaa !52
  %204 = load double, ptr %19, align 8, !tbaa !52
  %205 = fadd double %204, %203
  store double %205, ptr %19, align 8, !tbaa !52
  %206 = load double, ptr %24, align 8, !tbaa !52
  %207 = call double @llvm.fabs.f64(double %206)
  %208 = fcmp ole double %207, 0x3D719799812DEA11
  br i1 %208, label %209, label %210

209:                                              ; preds = %177
  store i32 5, ptr %23, align 4
  br label %211

210:                                              ; preds = %177
  store i32 0, ptr %23, align 4
  br label %211

211:                                              ; preds = %210, %209
  call void @llvm.lifetime.end.p0(i64 8, ptr %24) #9
  %212 = load i32, ptr %23, align 4
  switch i32 %212, label %252 [
    i32 0, label %213
    i32 5, label %217
  ]

213:                                              ; preds = %211
  br label %214

214:                                              ; preds = %213
  %215 = load i32, ptr %8, align 4, !tbaa !51
  %216 = add nsw i32 %215, -1
  store i32 %216, ptr %8, align 4, !tbaa !51
  br label %174, !llvm.loop !71

217:                                              ; preds = %211, %174
  br label %218

218:                                              ; preds = %217, %127
  %219 = load i32, ptr %8, align 4, !tbaa !51
  %220 = icmp ne i32 %219, 0
  br i1 %220, label %221, label %246

221:                                              ; preds = %218
  %222 = load double, ptr %19, align 8, !tbaa !52
  %223 = getelementptr inbounds nuw %struct.PJ_LP, ptr %4, i32 0, i32 1
  store double %222, ptr %223, align 8, !tbaa !69
  %224 = getelementptr inbounds nuw %struct.COMPLEX, ptr %9, i32 0, i32 0
  %225 = load double, ptr %224, align 8, !tbaa !60
  %226 = load double, ptr %16, align 8, !tbaa !52
  %227 = fmul double %225, %226
  %228 = load double, ptr %14, align 8, !tbaa !52
  %229 = load ptr, ptr %7, align 8, !tbaa !41
  %230 = getelementptr inbounds nuw %"struct.(anonymous namespace)::pj_mod_ster_data", ptr %229, i32 0, i32 1
  %231 = load double, ptr %230, align 8, !tbaa !54
  %232 = fmul double %228, %231
  %233 = load double, ptr %17, align 8, !tbaa !52
  %234 = getelementptr inbounds nuw %struct.COMPLEX, ptr %9, i32 0, i32 1
  %235 = load double, ptr %234, align 8, !tbaa !63
  %236 = load ptr, ptr %7, align 8, !tbaa !41
  %237 = getelementptr inbounds nuw %"struct.(anonymous namespace)::pj_mod_ster_data", ptr %236, i32 0, i32 2
  %238 = load double, ptr %237, align 8, !tbaa !53
  %239 = fmul double %235, %238
  %240 = load double, ptr %16, align 8, !tbaa !52
  %241 = fmul double %239, %240
  %242 = fneg double %241
  %243 = call double @llvm.fmuladd.f64(double %232, double %233, double %242)
  %244 = call double @atan2(double noundef %227, double noundef %243) #9, !tbaa !51
  %245 = getelementptr inbounds nuw %struct.PJ_LP, ptr %4, i32 0, i32 0
  store double %244, ptr %245, align 8, !tbaa !67
  br label %249

246:                                              ; preds = %218
  %247 = getelementptr inbounds nuw %struct.PJ_LP, ptr %4, i32 0, i32 1
  store double 0x7FF0000000000000, ptr %247, align 8, !tbaa !69
  %248 = getelementptr inbounds nuw %struct.PJ_LP, ptr %4, i32 0, i32 0
  store double 0x7FF0000000000000, ptr %248, align 8, !tbaa !67
  br label %249

249:                                              ; preds = %246, %221
  store i32 1, ptr %23, align 4
  br label %250

250:                                              ; preds = %249, %147
  call void @llvm.lifetime.end.p0(i64 8, ptr %20) #9
  call void @llvm.lifetime.end.p0(i64 8, ptr %19) #9
  call void @llvm.lifetime.end.p0(i64 8, ptr %18) #9
  call void @llvm.lifetime.end.p0(i64 8, ptr %17) #9
  call void @llvm.lifetime.end.p0(i64 8, ptr %16) #9
  call void @llvm.lifetime.end.p0(i64 8, ptr %15) #9
  call void @llvm.lifetime.end.p0(i64 8, ptr %14) #9
  call void @llvm.lifetime.end.p0(i64 8, ptr %13) #9
  call void @llvm.lifetime.end.p0(i64 16, ptr %12) #9
  call void @llvm.lifetime.end.p0(i64 16, ptr %11) #9
  call void @llvm.lifetime.end.p0(i64 16, ptr %10) #9
  call void @llvm.lifetime.end.p0(i64 16, ptr %9) #9
  call void @llvm.lifetime.end.p0(i64 4, ptr %8) #9
  call void @llvm.lifetime.end.p0(i64 8, ptr %7) #9
  %251 = load { double, double }, ptr %4, align 8
  ret { double, double } %251

252:                                              ; preds = %211
  unreachable
}