; Function Attrs: mustprogress uwtable
define internal { double, double } @_ZL18mod_ster_e_inverse5PJ_XYP8PJconsts(double %0, double %1, ptr noundef readonly captures(none) %2) #0 {
  %4 = alloca %struct.COMPLEX, align 8
  %5 = getelementptr inbounds nuw i8, ptr %2, i64 88
  %6 = load ptr, ptr %5, align 8, !tbaa !3
  call void @llvm.lifetime.start.p0(i64 16, ptr nonnull %4) #7
  %7 = getelementptr inbounds nuw i8, ptr %6, i64 24
  %8 = getelementptr inbounds nuw i8, ptr %4, i64 8
  br label %11

9:                                                ; preds = %11
  %10 = add nsw i32 %.06085, -1
  %.not = icmp eq i32 %10, 0
  br i1 %.not, label %.thread72, label %11, !llvm.loop !54

11:                                               ; preds = %3, %9
  %.06085 = phi i32 [ 20, %3 ], [ %10, %9 ]
  %.sroa.8.084 = phi double [ %1, %3 ], [ %33, %9 ]
  %.sroa.032.083 = phi double [ %0, %3 ], [ %32, %9 ]
  %12 = load ptr, ptr %6, align 8, !tbaa !40
  %13 = load i32, ptr %7, align 8, !tbaa !36
  %14 = call { double, double } @_Z10pj_zpolyd17COMPLEXPKS_iPS_(double %.sroa.032.083, double %.sroa.8.084, ptr noundef %12, i32 noundef %13, ptr noundef nonnull %4)
  %15 = extractvalue { double, double } %14, 0
  %16 = extractvalue { double, double } %14, 1
  %17 = fsub double %15, %0
  %18 = fsub double %16, %1
  %19 = load double, ptr %4, align 8, !tbaa !56
  %20 = load double, ptr %8, align 8, !tbaa !58
  %21 = fmul double %20, %20
  %22 = call double @llvm.fmuladd.f64(double %19, double %19, double %21)
  %23 = fmul double %18, %20
  %24 = call double @llvm.fmuladd.f64(double %17, double %19, double %23)
  %25 = fneg double %24
  %26 = fdiv double %25, %22
  %27 = fneg double %20
  %28 = fmul double %17, %27
  %29 = call double @llvm.fmuladd.f64(double %18, double %19, double %28)
  %30 = fneg double %29
  %31 = fdiv double %30, %22
  %32 = fadd double %.sroa.032.083, %26
  %33 = fadd double %.sroa.8.084, %31
  %34 = call double @llvm.fabs.f64(double %26)
  %35 = call double @llvm.fabs.f64(double %31)
  %36 = fadd double %34, %35
  %37 = fcmp ugt double %36, 0x3D719799812DEA11
  br i1 %37, label %9, label %38

38:                                               ; preds = %11
  %39 = call double @hypot(double noundef %32, double noundef %33) #7, !tbaa !53
  %40 = fmul double %39, 5.000000e-01
  %41 = call double @atan(double noundef %40) #7, !tbaa !53
  %42 = fmul double %41, 2.000000e+00
  %43 = call double @sin(double noundef %42) #7, !tbaa !53
  %44 = call double @cos(double noundef %42) #7, !tbaa !53
  %45 = call double @llvm.fabs.f64(double %39)
  %46 = fcmp ugt double %45, 0x3D719799812DEA11
  br i1 %46, label %50, label %47

47:                                               ; preds = %38
  %48 = getelementptr inbounds nuw i8, ptr %2, i64 448
  %49 = load double, ptr %48, align 8, !tbaa !39
  br label %.thread72

50:                                               ; preds = %38
  %51 = load ptr, ptr %2, align 8, !tbaa !59
  %52 = getelementptr inbounds nuw i8, ptr %6, i64 16
  %53 = load double, ptr %52, align 8, !tbaa !42
  %54 = fmul double %33, %43
  %55 = getelementptr inbounds nuw i8, ptr %6, i64 8
  %56 = load double, ptr %55, align 8, !tbaa !43
  %57 = fmul double %54, %56
  %58 = fdiv double %57, %39
  %59 = call double @llvm.fmuladd.f64(double %44, double %53, double %58)
  %60 = call noundef double @_Z5aasinP6pj_ctxd(ptr noundef %51, double noundef %59)
  %61 = getelementptr inbounds nuw i8, ptr %2, i64 208
  %62 = load double, ptr %61, align 8, !tbaa !52
  %63 = fadd double %60, 0x3FF921FB54442D18
  %64 = fmul double %63, 5.000000e-01
  %65 = fmul double %62, 5.000000e-01
  br label %68

66:                                               ; preds = %68
  %67 = add nsw i32 %.287, -1
  %.not66 = icmp eq i32 %67, 0
  br i1 %.not66, label %.thread72, label %68, !llvm.loop !60

68:                                               ; preds = %50, %66
  %.287 = phi i32 [ 20, %50 ], [ %67, %66 ]
  %.16386 = phi double [ %60, %50 ], [ %80, %66 ]
  %69 = call double @sin(double noundef %.16386) #7, !tbaa !53
  %70 = fmul double %62, %69
  %71 = call double @tan(double noundef %64) #7, !tbaa !53
  %72 = fadd double %70, 1.000000e+00
  %73 = fsub double 1.000000e+00, %70
  %74 = fdiv double %72, %73
  %75 = call double @pow(double noundef %74, double noundef %65) #7, !tbaa !53
  %76 = fmul double %71, %75
  %77 = call double @atan(double noundef %76) #7, !tbaa !53
  %78 = call double @llvm.fmuladd.f64(double %77, double 2.000000e+00, double 0xBFF921FB54442D18)
  %79 = fsub double %78, %.16386
  %80 = fadd double %.16386, %79
  %81 = call double @llvm.fabs.f64(double %79)
  %82 = fcmp ugt double %81, 0x3D719799812DEA11
  br i1 %82, label %66, label %83

83:                                               ; preds = %68
  %84 = fmul double %32, %43
  %85 = load double, ptr %55, align 8, !tbaa !43
  %86 = fmul double %39, %85
  %87 = load double, ptr %52, align 8, !tbaa !42
  %88 = fmul double %33, %87
  %89 = fneg double %43
  %90 = fmul double %88, %89
  %91 = call double @llvm.fmuladd.f64(double %86, double %44, double %90)
  %92 = call double @atan2(double noundef %84, double noundef %91) #7, !tbaa !53
  br label %.thread72

.thread72:                                        ; preds = %9, %66, %83, %47
  %.sroa.559.0 = phi double [ %49, %47 ], [ %80, %83 ], [ 0x7FF0000000000000, %66 ], [ 0x7FF0000000000000, %9 ]
  %.sroa.058.0 = phi double [ 0.000000e+00, %47 ], [ %92, %83 ], [ 0x7FF0000000000000, %66 ], [ 0x7FF0000000000000, %9 ]
  call void @llvm.lifetime.end.p0(i64 16, ptr nonnull %4) #7
  %.fca.0.insert = insertvalue { double, double } poison, double %.sroa.058.0, 0
  %.fca.1.insert = insertvalue { double, double } %.fca.0.insert, double %.sroa.559.0, 1
  ret { double, double } %.fca.1.insert
}